target datalayout = "e-m:e-p270:32:32-p271:32:32-p272:64:64-i64:64-i128:128-f80:128-n8:16:32:64-S128"
target triple = "x86_64-pc-linux-gnu"

%struct.AVChannelLayout = type { i32, i32, %union.anon.0, ptr }
%union.anon.0 = type { i64 }
%struct.AVCodecContext = type { ptr, i32, i32, ptr, i32, i32, ptr, ptr, ptr, i64, i32, i32, ptr, i32, %struct.AVRational, %struct.AVRational, %struct.AVRational, i32, i32, i32, i32, i32, %struct.AVRational, i32, i32, i32, i32, i32, i32, i32, i32, i32, i32, i32, ptr, ptr, i32, float, float, float, float, float, float, float, float, float, i32, i32, i32, i32, i32, i32, i32, i32, i32, i32, i32, i32, ptr, ptr, ptr, i32, i32, i32, i32, i32, i32, i32, i32, i32, i32, %struct.AVChannelLayout, i32, i32, i32, i32, i32, i32, i32, i32, ptr, i32, i32, i32, float, float, i32, i32, i32, i32, i32, ptr, i64, i64, float, float, i32, i32, ptr, ptr, i32, i32, i32, i32, i32, ptr, ptr, ptr, ptr, i32, i32, [8 x i64], i32, i32, i32, i32, i32, i32, i32, ptr, ptr, i32, i32, i32, i32, i32, i32, i32, i32, i32, i32, ptr, ptr, i32, i32, ptr, ptr, ptr, ptr, i32, i32, i64, i32, i32, i64, ptr, i64, ptr, i32, ptr, i32 }
%struct.AVRational = type { i32, i32 }

@.str.4 = private unnamed_addr constant [28 x i8] c"Invalid block alignment %d\0A\00", align 1

; Function Attrs: cold nounwind optsize uwtable
define internal i32 @gsm_init(ptr noundef %0) #0 {
  %2 = alloca i32, align 4
  %3 = alloca ptr, align 8
  %4 = alloca %struct.AVChannelLayout, align 8
  store ptr %0, ptr %3, align 8, !tbaa !4
  %5 = load ptr, ptr %3, align 8, !tbaa !4
  %6 = getelementptr inbounds nuw %struct.AVCodecContext, ptr %5, i32 0, i32 71
  call void @av_channel_layout_uninit(ptr noundef %6)
  %7 = load ptr, ptr %3, align 8, !tbaa !4
  %8 = getelementptr inbounds nuw %struct.AVCodecContext, ptr %7, i32 0, i32 71
  %9 = getelementptr inbounds nuw %struct.AVChannelLayout, ptr %4, i32 0, i32 0
  store i32 1, ptr %9, align 8, !tbaa !9
  %10 = getelementptr inbounds nuw %struct.AVChannelLayout, ptr %4, i32 0, i32 1
  store i32 1, ptr %10, align 4, !tbaa !12
  %11 = getelementptr inbounds nuw %struct.AVChannelLayout, ptr %4, i32 0, i32 2
  store i64 4, ptr %11, align 8, !tbaa !13
  %12 = getelementptr inbounds nuw %struct.AVChannelLayout, ptr %4, i32 0, i32 3
  store ptr null, ptr %12, align 8, !tbaa !14
  call void @llvm.memcpy.p0.p0.i64(ptr align 8 %8, ptr align 8 %4, i64 24, i1 false), !tbaa.struct !15
  %13 = load ptr, ptr %3, align 8, !tbaa !4
  %14 = getelementptr inbounds nuw %struct.AVCodecContext, ptr %13, i32 0, i32 69
  %15 = load i32, ptr %14, align 8, !tbaa !18
  %16 = icmp ne i32 %15, 0
  br i1 %16, label %20, label %17

17:                                               ; preds = %1
  %18 = load ptr, ptr %3, align 8, !tbaa !4
  %19 = getelementptr inbounds nuw %struct.AVCodecContext, ptr %18, i32 0, i32 69
  store i32 8000, ptr %19, align 8, !tbaa !18
  br label %20

20:                                               ; preds = %17, %1
  %21 = load ptr, ptr %3, align 8, !tbaa !4
  %22 = getelementptr inbounds nuw %struct.AVCodecContext, ptr %21, i32 0, i32 70
  store i32 1, ptr %22, align 4, !tbaa !36
  %23 = load ptr, ptr %3, align 8, !tbaa !4
  %24 = getelementptr inbounds nuw %struct.AVCodecContext, ptr %23, i32 0, i32 4
  %25 = load i32, ptr %24, align 8, !tbaa !37
  switch i32 %25, label %65 [
    i32 86034, label %26
    i32 86046, label %31
  ]

26:                                               ; preds = %20
  %27 = load ptr, ptr %3, align 8, !tbaa !4
  %28 = getelementptr inbounds nuw %struct.AVCodecContext, ptr %27, i32 0, i32 72
  store i32 160, ptr %28, align 8, !tbaa !38
  %29 = load ptr, ptr %3, align 8, !tbaa !4
  %30 = getelementptr inbounds nuw %struct.AVCodecContext, ptr %29, i32 0, i32 73
  store i32 33, ptr %30, align 4, !tbaa !39
  br label %65

31:                                               ; preds = %20
  %32 = load ptr, ptr %3, align 8, !tbaa !4
  %33 = getelementptr inbounds nuw %struct.AVCodecContext, ptr %32, i32 0, i32 72
  store i32 320, ptr %33, align 8, !tbaa !38
  %34 = load ptr, ptr %3, align 8, !tbaa !4
  %35 = getelementptr inbounds nuw %struct.AVCodecContext, ptr %34, i32 0, i32 73
  %36 = load i32, ptr %35, align 4, !tbaa !39
  %37 = icmp ne i32 %36, 0
  br i1 %37, label %41, label %38

38:                                               ; preds = %31
  %39 = load ptr, ptr %3, align 8, !tbaa !4
  %40 = getelementptr inbounds nuw %struct.AVCodecContext, ptr %39, i32 0, i32 73
  store i32 65, ptr %40, align 4, !tbaa !39
  br label %64

41:                                               ; preds = %31
  %42 = load ptr, ptr %3, align 8, !tbaa !4
  %43 = getelementptr inbounds nuw %struct.AVCodecContext, ptr %42, i32 0, i32 73
  %44 = load i32, ptr %43, align 4, !tbaa !39
  %45 = icmp slt i32 %44, 41
  br i1 %45, label %58, label %46

46:                                               ; preds = %41
  %47 = load ptr, ptr %3, align 8, !tbaa !4
  %48 = getelementptr inbounds nuw %struct.AVCodecContext, ptr %47, i32 0, i32 73
  %49 = load i32, ptr %48, align 4, !tbaa !39
  %50 = icmp sgt i32 %49, 65
  br i1 %50, label %58, label %51

51:                                               ; preds = %46
  %52 = load ptr, ptr %3, align 8, !tbaa !4
  %53 = getelementptr inbounds nuw %struct.AVCodecContext, ptr %52, i32 0, i32 73
  %54 = load i32, ptr %53, align 4, !tbaa !39
  %55 = sub nsw i32 %54, 41
  %56 = srem i32 %55, 3
  %57 = icmp ne i32 %56, 0
  br i1 %57, label %58, label %63

58:                                               ; preds = %51, %46, %41
  %59 = load ptr, ptr %3, align 8, !tbaa !4
  %60 = load ptr, ptr %3, align 8, !tbaa !4
  %61 = getelementptr inbounds nuw %struct.AVCodecContext, ptr %60, i32 0, i32 73
  %62 = load i32, ptr %61, align 4, !tbaa !39
  call void (ptr, i32, ptr, ...) @av_log(ptr noundef %59, i32 noundef 16, ptr noundef @.str.4, i32 noundef %62)
  store i32 -1094995529, ptr %2, align 4
  br label %66

63:                                               ; preds = %51
  br label %64

64:                                               ; preds = %63, %38
  br label %65

65:                                               ; preds = %64, %20, %26
  store i32 0, ptr %2, align 4
  br label %66

66:                                               ; preds = %65, %58
  %67 = load i32, ptr %2, align 4
  ret i32 %67
}