; Function Attrs: cold nounwind optsize uwtable
define internal range(i32 -1094995529, 1) i32 @gsm_init(ptr noundef %0) #0 {
  %2 = getelementptr inbounds nuw i8, ptr %0, i64 352
  tail call void @av_channel_layout_uninit(ptr noundef nonnull %2) #9
  store i32 1, ptr %2, align 8, !tbaa !4
  %.sroa.2.0..sroa_idx = getelementptr inbounds nuw i8, ptr %0, i64 356
  store i32 1, ptr %.sroa.2.0..sroa_idx, align 4, !tbaa !4
  %.sroa.3.0..sroa_idx = getelementptr inbounds nuw i8, ptr %0, i64 360
  store i64 4, ptr %.sroa.3.0..sroa_idx, align 8, !tbaa !8
  %.sroa.4.0..sroa_idx = getelementptr inbounds nuw i8, ptr %0, i64 368
  store ptr null, ptr %.sroa.4.0..sroa_idx, align 8, !tbaa !9
  %3 = getelementptr inbounds nuw i8, ptr %0, i64 344
  %4 = load i32, ptr %3, align 8, !tbaa !11
  %.not = icmp eq i32 %4, 0
  br i1 %.not, label %5, label %6

5:                                                ; preds = %1
  store i32 8000, ptr %3, align 8, !tbaa !11
  br label %6

6:                                                ; preds = %5, %1
  %7 = getelementptr inbounds nuw i8, ptr %0, i64 348
  store i32 1, ptr %7, align 4, !tbaa !30
  %8 = getelementptr inbounds nuw i8, ptr %0, i64 24
  %9 = load i32, ptr %8, align 8, !tbaa !31
  switch i32 %9, label %24 [
    i32 86034, label %10
    i32 86046, label %13
  ]

10:                                               ; preds = %6
  %11 = getelementptr inbounds nuw i8, ptr %0, i64 376
  store i32 160, ptr %11, align 8, !tbaa !32
  %12 = getelementptr inbounds nuw i8, ptr %0, i64 380
  store i32 33, ptr %12, align 4, !tbaa !33
  br label %24

13:                                               ; preds = %6
  %14 = getelementptr inbounds nuw i8, ptr %0, i64 376
  store i32 320, ptr %14, align 8, !tbaa !32
  %15 = getelementptr inbounds nuw i8, ptr %0, i64 380
  %16 = load i32, ptr %15, align 4, !tbaa !33
  %.not17 = icmp eq i32 %16, 0
  br i1 %.not17, label %17, label %18

17:                                               ; preds = %13
  store i32 65, ptr %15, align 4, !tbaa !33
  br label %24

18:                                               ; preds = %13
  %19 = add i32 %16, -66
  %or.cond = icmp ult i32 %19, -25
  br i1 %or.cond, label %23, label %20

20:                                               ; preds = %18
  %21 = trunc nuw nsw i32 %16 to i8
  %.lhs.trunc = add nsw i8 %21, -41
  %22 = urem i8 %.lhs.trunc, 3
  %.not18 = icmp eq i8 %22, 0
  br i1 %.not18, label %24, label %23

23:                                               ; preds = %20, %18
  tail call void (ptr, i32, ptr, ...) @av_log(ptr noundef nonnull %0, i32 noundef 16, ptr noundef nonnull @.str.4, i32 noundef %16) #9
  br label %24

24:                                               ; preds = %6, %10, %20, %17, %23
  %.0 = phi i32 [ -1094995529, %23 ], [ 0, %17 ], [ 0, %20 ], [ 0, %10 ], [ 0, %6 ]
  ret i32 %.0
}